target datalayout = "e-m:e-p270:32:32-p271:32:32-p272:64:64-i64:64-i128:128-f80:128-n8:16:32:64-S128"
target triple = "x86_64-pc-linux-gnu"

%struct.RelFileLocator = type { i32, i32, i32 }
%struct.ItemPointerData = type { %struct.BlockIdData, i16 }
%struct.BlockIdData = type { i16, i16 }
%struct.IndexScanDescData = type { ptr, ptr, ptr, i32, i32, ptr, ptr, i8, i8, i8, i8, i8, ptr, ptr, ptr, ptr, ptr, %struct.ItemPointerData, i8, ptr, i8, ptr, ptr, i8, ptr }
%struct.BTParallelScanDescData = type { i32, i32, i32, i8, %struct.ConditionVariable, [0 x i32] }
%struct.ConditionVariable = type { i8, %struct.proclist_head }
%struct.proclist_head = type { i32, i32 }
%struct.ParallelIndexScanDescData = type { %struct.RelFileLocator, %struct.RelFileLocator, i64, [0 x i8] }

@.str = private unnamed_addr constant [9 x i8] c"nbtree.c\00", align 1
@__func__.btparallelrescan = private unnamed_addr constant [17 x i8] c"btparallelrescan\00", align 1

; Function Attrs: inlinehint nounwind uwtable
define internal i32 @tas(ptr noundef %0) #2 {
  %2 = alloca ptr, align 8
  %3 = alloca i8, align 1
  store ptr %0, ptr %2, align 8
  call void @llvm.lifetime.start.p0(i64 1, ptr %3) #8
  store i8 1, ptr %3, align 1
  %4 = load i8, ptr %3, align 1
  %5 = load ptr, ptr %2, align 8
  %6 = call i8 asm sideeffect "\09lock\09\09\09\0A\09xchgb\09$0,$1\09\0A", "=q,=*m,0,*m,~{memory},~{cc},~{dirflag},~{fpsr},~{flags}"(ptr elementtype(i8) %5, i8 %4, ptr elementtype(i8) %5) #8, !srcloc !11
  store i8 %6, ptr %3, align 1
  %7 = load i8, ptr %3, align 1
  %8 = zext i8 %7 to i32
  call void @llvm.lifetime.end.p0(i64 1, ptr %3) #8
  ret i32 %8
}

; Function Attrs: nounwind uwtable
define dso_local void @btparallelrescan(ptr noundef %0) #0 {
  %2 = alloca ptr, align 8
  %3 = alloca ptr, align 8
  %4 = alloca ptr, align 8
  store ptr %0, ptr %2, align 8
  call void @llvm.lifetime.start.p0(i64 8, ptr %3) #8
  call void @llvm.lifetime.start.p0(i64 8, ptr %4) #8
  %5 = load ptr, ptr %2, align 8
  %6 = getelementptr inbounds nuw %struct.IndexScanDescData, ptr %5, i32 0, i32 24
  %7 = load ptr, ptr %6, align 8
  store ptr %7, ptr %4, align 8
  %8 = load ptr, ptr %4, align 8
  %9 = load ptr, ptr %4, align 8
  %10 = getelementptr inbounds nuw %struct.ParallelIndexScanDescData, ptr %9, i32 0, i32 2
  %11 = load i64, ptr %10, align 8
  %12 = getelementptr inbounds nuw i8, ptr %8, i64 %11
  store ptr %12, ptr %3, align 8
  %13 = load ptr, ptr %3, align 8
  %14 = getelementptr inbounds nuw %struct.BTParallelScanDescData, ptr %13, i32 0, i32 3
  %15 = call i32 @tas(ptr noundef %14)
  %16 = icmp ne i32 %15, 0
  br i1 %16, label %17, label %21

17:                                               ; preds = %1
  %18 = load ptr, ptr %3, align 8
  %19 = getelementptr inbounds nuw %struct.BTParallelScanDescData, ptr %18, i32 0, i32 3
  %20 = call i32 @s_lock(ptr noundef %19, ptr noundef @.str, i32 noundef 580, ptr noundef @__func__.btparallelrescan)
  br label %22

21:                                               ; preds = %1
  br label %22

22:                                               ; preds = %21, %17
  %23 = load ptr, ptr %3, align 8
  %24 = getelementptr inbounds nuw %struct.BTParallelScanDescData, ptr %23, i32 0, i32 0
  store i32 -1, ptr %24, align 4
  %25 = load ptr, ptr %3, align 8
  %26 = getelementptr inbounds nuw %struct.BTParallelScanDescData, ptr %25, i32 0, i32 1
  store i32 -1, ptr %26, align 4
  %27 = load ptr, ptr %3, align 8
  %28 = getelementptr inbounds nuw %struct.BTParallelScanDescData, ptr %27, i32 0, i32 2
  store i32 0, ptr %28, align 4
  br label %29

29:                                               ; preds = %22
  call void asm sideeffect "", "~{memory},~{dirflag},~{fpsr},~{flags}"() #8, !srcloc !10
  %30 = load ptr, ptr %3, align 8
  %31 = getelementptr inbounds nuw %struct.BTParallelScanDescData, ptr %30, i32 0, i32 3
  store i8 0, ptr %31, align 4
  br label %32

32:                                               ; preds = %29
  br label %33

33:                                               ; preds = %32
  call void @llvm.lifetime.end.p0(i64 8, ptr %4) #8
  call void @llvm.lifetime.end.p0(i64 8, ptr %3) #8
  ret void
}