; Function Attrs: nounwind uwtable
define dso_local void @btparallelrescan(ptr noundef readonly captures(none) %0) #0 {
  %2 = getelementptr inbounds nuw i8, ptr %0, i64 144
  %3 = load ptr, ptr %2, align 8
  %4 = getelementptr inbounds nuw i8, ptr %3, i64 24
  %5 = load i64, ptr %4, align 8
  %6 = getelementptr inbounds nuw i8, ptr %3, i64 %5
  %7 = getelementptr inbounds nuw i8, ptr %6, i64 12
  %8 = tail call i8 asm sideeffect "\09lock\09\09\09\0A\09xchgb\09$0,$1\09\0A", "=q,=*m,0,*m,~{memory},~{cc},~{dirflag},~{fpsr},~{flags}"(ptr nonnull elementtype(i8) %7, i8 1, ptr nonnull elementtype(i8) %7) #8, !srcloc !10
  %.not = icmp eq i8 %8, 0
  br i1 %.not, label %11, label %9

9:                                                ; preds = %1
  %10 = tail call i32 @s_lock(ptr noundef nonnull %7, ptr noundef nonnull @.str, i32 noundef 580, ptr noundef nonnull @__func__.btparallelrescan) #8
  br label %11

11:                                               ; preds = %1, %9
  store i32 -1, ptr %6, align 4
  %12 = getelementptr inbounds nuw i8, ptr %6, i64 4
  store i32 -1, ptr %12, align 4
  %13 = getelementptr inbounds nuw i8, ptr %6, i64 8
  store i32 0, ptr %13, align 4
  tail call void asm sideeffect "", "~{memory},~{dirflag},~{fpsr},~{flags}"() #8, !srcloc !11
  store i8 0, ptr %7, align 4
  ret void
}